target datalayout = "e-m:e-p270:32:32-p271:32:32-p272:64:64-i64:64-i128:128-f80:128-n8:16:32:64-S128"
target triple = "x86_64-pc-linux-gnu"

%struct.gz_state = type { i32, i32, ptr, i64, i32, i32, ptr, ptr, ptr, i32, i32, i64, i64, i32, i32, i32, i32, i64, i32, i32, ptr, %struct.z_stream_s }
%struct.z_stream_s = type { ptr, i32, i64, ptr, i32, i64, ptr, ptr, ptr, ptr, ptr, i32, i64, i64 }

@.str.3 = private unnamed_addr constant [39 x i8] c"internal error: deflate stream corrupt\00", align 1

; Function Attrs: nounwind uwtable
define internal i32 @gz_comp(ptr noundef %0, i32 noundef %1) #0 {
  %3 = alloca i32, align 4
  %4 = alloca ptr, align 8
  %5 = alloca i32, align 4
  %6 = alloca i32, align 4
  %7 = alloca i32, align 4
  %8 = alloca i32, align 4
  %9 = alloca ptr, align 8
  %10 = alloca i32, align 4
  store ptr %0, ptr %4, align 8, !tbaa !3
  store i32 %1, ptr %5, align 4, !tbaa !7
  call void @llvm.lifetime.start.p0(i64 4, ptr %6) #10
  call void @llvm.lifetime.start.p0(i64 4, ptr %7) #10
  call void @llvm.lifetime.start.p0(i64 4, ptr %8) #10
  call void @llvm.lifetime.start.p0(i64 8, ptr %9) #10
  %11 = load ptr, ptr %4, align 8, !tbaa !3
  %12 = getelementptr inbounds nuw %struct.gz_state, ptr %11, i32 0, i32 21
  store ptr %12, ptr %9, align 8, !tbaa !9
  %13 = load ptr, ptr %4, align 8, !tbaa !3
  %14 = getelementptr inbounds nuw %struct.gz_state, ptr %13, i32 0, i32 4
  %15 = load i32, ptr %14, align 8, !tbaa !18
  %16 = icmp eq i32 %15, 0
  br i1 %16, label %17, label %22

17:                                               ; preds = %2
  %18 = load ptr, ptr %4, align 8, !tbaa !3
  %19 = call i32 @gz_init(ptr noundef %18)
  %20 = icmp eq i32 %19, -1
  br i1 %20, label %21, label %22

21:                                               ; preds = %17
  store i32 -1, ptr %3, align 4
  store i32 1, ptr %10, align 4
  br label %120

22:                                               ; preds = %17, %2
  store i32 0, ptr %6, align 4, !tbaa !7
  br label %23

23:                                               ; preds = %110, %22
  %24 = load ptr, ptr %9, align 8, !tbaa !9
  %25 = getelementptr inbounds nuw %struct.z_stream_s, ptr %24, i32 0, i32 4
  %26 = load i32, ptr %25, align 8, !tbaa !34
  %27 = icmp eq i32 %26, 0
  br i1 %27, label %37, label %28

28:                                               ; preds = %23
  %29 = load i32, ptr %5, align 4, !tbaa !7
  %30 = icmp ne i32 %29, 0
  br i1 %30, label %31, label %93

31:                                               ; preds = %28
  %32 = load i32, ptr %5, align 4, !tbaa !7
  %33 = icmp ne i32 %32, 4
  br i1 %33, label %37, label %34

34:                                               ; preds = %31
  %35 = load i32, ptr %6, align 4, !tbaa !7
  %36 = icmp eq i32 %35, 1
  br i1 %36, label %37, label %93

37:                                               ; preds = %34, %31, %23
  %38 = load ptr, ptr %9, align 8, !tbaa !9
  %39 = getelementptr inbounds nuw %struct.z_stream_s, ptr %38, i32 0, i32 3
  %40 = load ptr, ptr %39, align 8, !tbaa !35
  %41 = load ptr, ptr %4, align 8, !tbaa !3
  %42 = getelementptr inbounds nuw %struct.gz_state, ptr %41, i32 0, i32 8
  %43 = load ptr, ptr %42, align 8, !tbaa !36
  %44 = ptrtoint ptr %40 to i64
  %45 = ptrtoint ptr %43 to i64
  %46 = sub i64 %44, %45
  %47 = trunc i64 %46 to i32
  store i32 %47, ptr %8, align 4, !tbaa !7
  %48 = load i32, ptr %8, align 4, !tbaa !7
  %49 = icmp ne i32 %48, 0
  br i1 %49, label %50, label %71

50:                                               ; preds = %37
  %51 = load ptr, ptr %4, align 8, !tbaa !3
  %52 = getelementptr inbounds nuw %struct.gz_state, ptr %51, i32 0, i32 1
  %53 = load i32, ptr %52, align 4, !tbaa !39
  %54 = load ptr, ptr %4, align 8, !tbaa !3
  %55 = getelementptr inbounds nuw %struct.gz_state, ptr %54, i32 0, i32 8
  %56 = load ptr, ptr %55, align 8, !tbaa !36
  %57 = load i32, ptr %8, align 4, !tbaa !7
  %58 = zext i32 %57 to i64
  %59 = call i64 @write(i32 noundef %53, ptr noundef %56, i64 noundef %58)
  %60 = trunc i64 %59 to i32
  store i32 %60, ptr %7, align 4, !tbaa !7
  %61 = icmp slt i32 %60, 0
  br i1 %61, label %66, label %62

62:                                               ; preds = %50
  %63 = load i32, ptr %7, align 4, !tbaa !7
  %64 = load i32, ptr %8, align 4, !tbaa !7
  %65 = icmp ne i32 %63, %64
  br i1 %65, label %66, label %71

66:                                               ; preds = %62, %50
  %67 = load ptr, ptr %4, align 8, !tbaa !3
  %68 = call ptr @__errno_location() #12
  %69 = load i32, ptr %68, align 4, !tbaa !7
  %70 = call ptr @strerror(i32 noundef %69) #10
  call void @gz_error(ptr noundef %67, i32 noundef -1, ptr noundef %70)
  store i32 -1, ptr %3, align 4
  store i32 1, ptr %10, align 4
  br label %120

71:                                               ; preds = %62, %37
  %72 = load ptr, ptr %9, align 8, !tbaa !9
  %73 = getelementptr inbounds nuw %struct.z_stream_s, ptr %72, i32 0, i32 4
  %74 = load i32, ptr %73, align 8, !tbaa !34
  %75 = icmp eq i32 %74, 0
  br i1 %75, label %76, label %87

76:                                               ; preds = %71
  %77 = load ptr, ptr %4, align 8, !tbaa !3
  %78 = getelementptr inbounds nuw %struct.gz_state, ptr %77, i32 0, i32 4
  %79 = load i32, ptr %78, align 8, !tbaa !18
  %80 = load ptr, ptr %9, align 8, !tbaa !9
  %81 = getelementptr inbounds nuw %struct.z_stream_s, ptr %80, i32 0, i32 4
  store i32 %79, ptr %81, align 8, !tbaa !34
  %82 = load ptr, ptr %4, align 8, !tbaa !3
  %83 = getelementptr inbounds nuw %struct.gz_state, ptr %82, i32 0, i32 7
  %84 = load ptr, ptr %83, align 8, !tbaa !28
  %85 = load ptr, ptr %9, align 8, !tbaa !9
  %86 = getelementptr inbounds nuw %struct.z_stream_s, ptr %85, i32 0, i32 3
  store ptr %84, ptr %86, align 8, !tbaa !35
  br label %87

87:                                               ; preds = %76, %71
  %88 = load ptr, ptr %9, align 8, !tbaa !9
  %89 = getelementptr inbounds nuw %struct.z_stream_s, ptr %88, i32 0, i32 3
  %90 = load ptr, ptr %89, align 8, !tbaa !35
  %91 = load ptr, ptr %4, align 8, !tbaa !3
  %92 = getelementptr inbounds nuw %struct.gz_state, ptr %91, i32 0, i32 8
  store ptr %90, ptr %92, align 8, !tbaa !36
  br label %93

93:                                               ; preds = %87, %34, %28
  %94 = load ptr, ptr %9, align 8, !tbaa !9
  %95 = getelementptr inbounds nuw %struct.z_stream_s, ptr %94, i32 0, i32 4
  %96 = load i32, ptr %95, align 8, !tbaa !34
  store i32 %96, ptr %8, align 4, !tbaa !7
  %97 = load ptr, ptr %9, align 8, !tbaa !9
  %98 = load i32, ptr %5, align 4, !tbaa !7
  %99 = call i32 @deflate(ptr noundef %97, i32 noundef %98)
  store i32 %99, ptr %6, align 4, !tbaa !7
  %100 = load i32, ptr %6, align 4, !tbaa !7
  %101 = icmp eq i32 %100, -2
  br i1 %101, label %102, label %104

102:                                              ; preds = %93
  %103 = load ptr, ptr %4, align 8, !tbaa !3
  call void @gz_error(ptr noundef %103, i32 noundef -2, ptr noundef @.str.3)
  store i32 -1, ptr %3, align 4
  store i32 1, ptr %10, align 4
  br label %120

104:                                              ; preds = %93
  %105 = load ptr, ptr %9, align 8, !tbaa !9
  %106 = getelementptr inbounds nuw %struct.z_stream_s, ptr %105, i32 0, i32 4
  %107 = load i32, ptr %106, align 8, !tbaa !34
  %108 = load i32, ptr %8, align 4, !tbaa !7
  %109 = sub i32 %108, %107
  store i32 %109, ptr %8, align 4, !tbaa !7
  br label %110

110:                                              ; preds = %104
  %111 = load i32, ptr %8, align 4, !tbaa !7
  %112 = icmp ne i32 %111, 0
  br i1 %112, label %23, label %113, !llvm.loop !40

113:                                              ; preds = %110
  %114 = load i32, ptr %5, align 4, !tbaa !7
  %115 = icmp eq i32 %114, 4
  br i1 %115, label %116, label %119

116:                                              ; preds = %113
  %117 = load ptr, ptr %9, align 8, !tbaa !9
  %118 = call i32 @deflateReset(ptr noundef %117)
  br label %119

119:                                              ; preds = %116, %113
  store i32 0, ptr %3, align 4
  store i32 1, ptr %10, align 4
  br label %120

120:                                              ; preds = %119, %102, %66, %21
  call void @llvm.lifetime.end.p0(i64 8, ptr %9) #10
  call void @llvm.lifetime.end.p0(i64 4, ptr %8) #10
  call void @llvm.lifetime.end.p0(i64 4, ptr %7) #10
  call void @llvm.lifetime.end.p0(i64 4, ptr %6) #10
  %121 = load i32, ptr %3, align 4
  ret i32 %121
}