; Function Attrs: nounwind uwtable
define internal fastcc range(i32 -1, 1) i32 @gz_comp(ptr noundef nonnull %0, i32 noundef range(i32 0, 5) %1) unnamed_addr #0 {
  %3 = getelementptr inbounds nuw i8, ptr %0, i64 120
  %4 = getelementptr inbounds nuw i8, ptr %0, i64 24
  %5 = load i32, ptr %4, align 8, !tbaa !14
  %6 = icmp eq i32 %5, 0
  br i1 %6, label %7, label %10

7:                                                ; preds = %2
  %8 = tail call fastcc i32 @gz_init(ptr noundef %0)
  %9 = icmp eq i32 %8, -1
  br i1 %9, label %106, label %10

10:                                               ; preds = %7, %2
  %11 = getelementptr inbounds nuw i8, ptr %0, i64 152
  %12 = getelementptr inbounds nuw i8, ptr %0, i64 144
  %13 = getelementptr inbounds nuw i8, ptr %0, i64 48
  %14 = getelementptr inbounds nuw i8, ptr %0, i64 4
  %15 = getelementptr inbounds nuw i8, ptr %0, i64 40
  switch i32 %1, label %.split.split.us [
    i32 0, label %.split.us.preheader
    i32 4, label %.split.split.preheader
  ]

.split.split.preheader:                           ; preds = %10
  %.pre = load i32, ptr %11, align 8, !tbaa !28
  br label %.split.split

.split.us.preheader:                              ; preds = %10
  %.pre63 = load i32, ptr %11, align 8, !tbaa !28
  br label %.split.us

.split.us:                                        ; preds = %.split.us.preheader, %42
  %16 = phi i32 [ %.pre63, %.split.us.preheader ], [ %43, %42 ]
  %17 = icmp eq i32 %16, 0
  br i1 %17, label %18, label %38

18:                                               ; preds = %.split.us
  %19 = load ptr, ptr %12, align 8, !tbaa !29
  %20 = load ptr, ptr %13, align 8, !tbaa !30
  %21 = ptrtoint ptr %19 to i64
  %22 = ptrtoint ptr %20 to i64
  %23 = sub i64 %21, %22
  %24 = trunc i64 %23 to i32
  %.not39.us = icmp eq i32 %24, 0
  br i1 %.not39.us, label %.thread, label %25

25:                                               ; preds = %18
  %26 = load i32, ptr %14, align 4, !tbaa !31
  %27 = and i64 %23, 4294967295
  %28 = tail call i64 @write(i32 noundef %26, ptr noundef %20, i64 noundef %27) #14
  %29 = trunc i64 %28 to i32
  %30 = icmp sgt i32 %29, -1
  %.not40.us = icmp eq i32 %29, %24
  %or.cond42.us = and i1 %30, %.not40.us
  br i1 %or.cond42.us, label %31, label %.split44.us

31:                                               ; preds = %25
  %.pre65 = load i32, ptr %11, align 8, !tbaa !28
  %32 = icmp eq i32 %.pre65, 0
  br i1 %32, label %.thread, label %._crit_edge66

._crit_edge66:                                    ; preds = %31
  %.pre67 = load ptr, ptr %12, align 8, !tbaa !29
  br label %35

.thread:                                          ; preds = %18, %31
  %33 = load i32, ptr %4, align 8, !tbaa !14
  store i32 %33, ptr %11, align 8, !tbaa !28
  %34 = load ptr, ptr %15, align 8, !tbaa !25
  store ptr %34, ptr %12, align 8, !tbaa !29
  br label %35

35:                                               ; preds = %._crit_edge66, %.thread
  %36 = phi i32 [ %.pre65, %._crit_edge66 ], [ %33, %.thread ]
  %37 = phi ptr [ %.pre67, %._crit_edge66 ], [ %34, %.thread ]
  store ptr %37, ptr %13, align 8, !tbaa !30
  br label %38

38:                                               ; preds = %.split.us, %35
  %39 = phi i32 [ %16, %.split.us ], [ %36, %35 ]
  %40 = tail call i32 @deflate(ptr noundef nonnull %3, i32 noundef 0) #14
  %41 = icmp eq i32 %40, -2
  br i1 %41, label %.split46.us, label %42

42:                                               ; preds = %38
  %43 = load i32, ptr %11, align 8, !tbaa !28
  %.not41.us = icmp eq i32 %39, %43
  br i1 %.not41.us, label %.split48.us, label %.split.us, !llvm.loop !32

.split.split.us:                                  ; preds = %10, %67
  %44 = load ptr, ptr %12, align 8, !tbaa !29
  %45 = load ptr, ptr %13, align 8, !tbaa !30
  %46 = ptrtoint ptr %44 to i64
  %47 = ptrtoint ptr %45 to i64
  %48 = sub i64 %46, %47
  %49 = trunc i64 %48 to i32
  %.not39.us50 = icmp eq i32 %49, 0
  br i1 %.not39.us50, label %56, label %50

50:                                               ; preds = %.split.split.us
  %51 = load i32, ptr %14, align 4, !tbaa !31
  %52 = and i64 %48, 4294967295
  %53 = tail call i64 @write(i32 noundef %51, ptr noundef %45, i64 noundef %52) #14
  %54 = trunc i64 %53 to i32
  %55 = icmp sgt i32 %54, -1
  %.not40.us51 = icmp eq i32 %54, %49
  %or.cond42.us52 = and i1 %55, %.not40.us51
  br i1 %or.cond42.us52, label %56, label %.split44.us

56:                                               ; preds = %50, %.split.split.us
  %57 = load i32, ptr %11, align 8, !tbaa !28
  %58 = icmp eq i32 %57, 0
  br i1 %58, label %59, label %._crit_edge68

._crit_edge68:                                    ; preds = %56
  %.pre69 = load ptr, ptr %12, align 8, !tbaa !29
  br label %62

59:                                               ; preds = %56
  %60 = load i32, ptr %4, align 8, !tbaa !14
  store i32 %60, ptr %11, align 8, !tbaa !28
  %61 = load ptr, ptr %15, align 8, !tbaa !25
  store ptr %61, ptr %12, align 8, !tbaa !29
  br label %62

62:                                               ; preds = %._crit_edge68, %59
  %63 = phi i32 [ %57, %._crit_edge68 ], [ %60, %59 ]
  %64 = phi ptr [ %.pre69, %._crit_edge68 ], [ %61, %59 ]
  store ptr %64, ptr %13, align 8, !tbaa !30
  %65 = tail call i32 @deflate(ptr noundef nonnull %3, i32 noundef %1) #14
  %66 = icmp eq i32 %65, -2
  br i1 %66, label %.split46.us, label %67

67:                                               ; preds = %62
  %68 = load i32, ptr %11, align 8, !tbaa !28
  %.not41.us53 = icmp eq i32 %63, %68
  br i1 %.not41.us53, label %.split48.us, label %.split.split.us, !llvm.loop !32

.split.split:                                     ; preds = %.split.split.preheader, %101
  %69 = phi i32 [ %102, %101 ], [ %.pre, %.split.split.preheader ]
  %.034 = phi i32 [ %99, %101 ], [ 0, %.split.split.preheader ]
  %70 = icmp eq i32 %69, 0
  %71 = icmp eq i32 %.034, 1
  %or.cond = or i1 %70, %71
  br i1 %or.cond, label %72, label %97

72:                                               ; preds = %.split.split
  %73 = load ptr, ptr %12, align 8, !tbaa !29
  %74 = load ptr, ptr %13, align 8, !tbaa !30
  %75 = ptrtoint ptr %73 to i64
  %76 = ptrtoint ptr %74 to i64
  %77 = sub i64 %75, %76
  %78 = trunc i64 %77 to i32
  %.not39 = icmp eq i32 %78, 0
  br i1 %.not39, label %88, label %79

79:                                               ; preds = %72
  %80 = load i32, ptr %14, align 4, !tbaa !31
  %81 = and i64 %77, 4294967295
  %82 = tail call i64 @write(i32 noundef %80, ptr noundef %74, i64 noundef %81) #14
  %83 = trunc i64 %82 to i32
  %84 = icmp sgt i32 %83, -1
  %.not40 = icmp eq i32 %83, %78
  %or.cond42 = and i1 %84, %.not40
  br i1 %or.cond42, label %._crit_edge, label %.split44.us

._crit_edge:                                      ; preds = %79
  %.pre60 = load i32, ptr %11, align 8, !tbaa !28
  br label %88

.split44.us:                                      ; preds = %79, %25, %50
  %85 = tail call ptr @__errno_location() #16
  %86 = load i32, ptr %85, align 4, !tbaa !33
  %87 = tail call ptr @strerror(i32 noundef %86) #14
  tail call void @gz_error(ptr noundef nonnull %0, i32 noundef -1, ptr noundef %87) #14
  br label %106

88:                                               ; preds = %._crit_edge, %72
  %89 = phi i32 [ %.pre60, %._crit_edge ], [ %69, %72 ]
  %90 = icmp eq i32 %89, 0
  br i1 %90, label %91, label %._crit_edge61

._crit_edge61:                                    ; preds = %88
  %.pre62 = load ptr, ptr %12, align 8, !tbaa !29
  br label %94

91:                                               ; preds = %88
  %92 = load i32, ptr %4, align 8, !tbaa !14
  store i32 %92, ptr %11, align 8, !tbaa !28
  %93 = load ptr, ptr %15, align 8, !tbaa !25
  store ptr %93, ptr %12, align 8, !tbaa !29
  br label %94

94:                                               ; preds = %._crit_edge61, %91
  %95 = phi i32 [ %89, %._crit_edge61 ], [ %92, %91 ]
  %96 = phi ptr [ %.pre62, %._crit_edge61 ], [ %93, %91 ]
  store ptr %96, ptr %13, align 8, !tbaa !30
  br label %97

97:                                               ; preds = %.split.split, %94
  %98 = phi i32 [ %69, %.split.split ], [ %95, %94 ]
  %99 = tail call i32 @deflate(ptr noundef nonnull %3, i32 noundef 4) #14
  %100 = icmp eq i32 %99, -2
  br i1 %100, label %.split46.us, label %101

.split46.us:                                      ; preds = %97, %38, %62
  tail call void @gz_error(ptr noundef nonnull %0, i32 noundef -2, ptr noundef nonnull @.str.3) #14
  br label %106

101:                                              ; preds = %97
  %102 = load i32, ptr %11, align 8, !tbaa !28
  %.not41 = icmp eq i32 %98, %102
  br i1 %.not41, label %.split48.us, label %.split.split, !llvm.loop !32

.split48.us:                                      ; preds = %101, %42, %67
  %103 = icmp eq i32 %1, 4
  br i1 %103, label %104, label %106

104:                                              ; preds = %.split48.us
  %105 = tail call i32 @deflateReset(ptr noundef nonnull %3) #14
  br label %106

106:                                              ; preds = %.split48.us, %104, %7, %.split46.us, %.split44.us
  %.0 = phi i32 [ -1, %.split44.us ], [ -1, %.split46.us ], [ -1, %7 ], [ 0, %104 ], [ 0, %.split48.us ]
  ret i32 %.0
}